target datalayout = "e-m:e-p270:32:32-p271:32:32-p272:64:64-i64:64-i128:128-f80:128-n8:16:32:64-S128"
target triple = "x86_64-pc-linux-gnu"

%struct.t_bb = type { float, float, float, float, float, float, float, float, i8, i32, i32, i32, i32, i32, i32, i32, i32, i32, i32, [32 x i8] }

@.str.1 = private unnamed_addr constant [2 x i8] c"\0A\00", align 1
@.str.4 = private unnamed_addr constant [2 x i8] c"N\00", align 1
@.str.7 = private unnamed_addr constant [2 x i8] c"C\00", align 1
@.str.8 = private unnamed_addr constant [2 x i8] c"O\00", align 1
@.str.23 = private unnamed_addr constant [45 x i8] c"%3s %3s %3s %3s %3s %7s %7s %7s %7s %7s %3s\0A\00", align 1
@.str.24 = private unnamed_addr constant [3 x i8] c"AA\00", align 1
@.str.25 = private unnamed_addr constant [3 x i8] c"Ca\00", align 1
@.str.26 = private unnamed_addr constant [4 x i8] c"Phi\00", align 1
@.str.27 = private unnamed_addr constant [4 x i8] c"Psi\00", align 1
@.str.28 = private unnamed_addr constant [3 x i8] c"D3\00", align 1
@.str.29 = private unnamed_addr constant [3 x i8] c"D4\00", align 1
@.str.30 = private unnamed_addr constant [3 x i8] c"D5\00", align 1
@.str.31 = private unnamed_addr constant [4 x i8] c"Hx?\00", align 1
@.str.32 = private unnamed_addr constant [55 x i8] c"%3d %3d %3d %3d %3d %7.2f %7.2f %7.3f %7.3f %7.3f %3s\0A\00", align 1
@.str.33 = private unnamed_addr constant [4 x i8] c"Yes\00", align 1
@.str.34 = private unnamed_addr constant [3 x i8] c"No\00", align 1

; Function Attrs: mustprogress nounwind uwtable
define void @_Z5pr_bbP8_IO_FILEiP4t_bb(ptr noundef %0, i32 noundef %1, ptr noundef %2) #2 {
  %4 = alloca ptr, align 8
  %5 = alloca i32, align 4
  %6 = alloca ptr, align 8
  %7 = alloca i32, align 4
  store ptr %0, ptr %4, align 8, !tbaa !30
  store i32 %1, ptr %5, align 4, !tbaa !4
  store ptr %2, ptr %6, align 8, !tbaa !8
  call void @llvm.lifetime.start.p0(i64 4, ptr %7) #14
  %8 = load ptr, ptr %4, align 8, !tbaa !30
  %9 = call i32 (ptr, ptr, ...) @fprintf(ptr noundef %8, ptr noundef @.str.1) #14
  %10 = load ptr, ptr %4, align 8, !tbaa !30
  %11 = call i32 (ptr, ptr, ...) @fprintf(ptr noundef %10, ptr noundef @.str.23, ptr noundef @.str.24, ptr noundef @.str.4, ptr noundef @.str.25, ptr noundef @.str.7, ptr noundef @.str.8, ptr noundef @.str.26, ptr noundef @.str.27, ptr noundef @.str.28, ptr noundef @.str.29, ptr noundef @.str.30, ptr noundef @.str.31) #14
  store i32 0, ptr %7, align 4, !tbaa !4
  br label %12

12:                                               ; preds = %92, %3
  %13 = load i32, ptr %7, align 4, !tbaa !4
  %14 = load i32, ptr %5, align 4, !tbaa !4
  %15 = icmp slt i32 %13, %14
  br i1 %15, label %16, label %95

16:                                               ; preds = %12
  %17 = load ptr, ptr %4, align 8, !tbaa !30
  %18 = load ptr, ptr %6, align 8, !tbaa !8
  %19 = load i32, ptr %7, align 4, !tbaa !4
  %20 = sext i32 %19 to i64
  %21 = getelementptr inbounds %struct.t_bb, ptr %18, i64 %20
  %22 = getelementptr inbounds nuw %struct.t_bb, ptr %21, i32 0, i32 11
  %23 = load i32, ptr %22, align 4, !tbaa !71
  %24 = load ptr, ptr %6, align 8, !tbaa !8
  %25 = load i32, ptr %7, align 4, !tbaa !4
  %26 = sext i32 %25 to i64
  %27 = getelementptr inbounds %struct.t_bb, ptr %24, i64 %26
  %28 = getelementptr inbounds nuw %struct.t_bb, ptr %27, i32 0, i32 13
  %29 = load i32, ptr %28, align 4, !tbaa !70
  %30 = load ptr, ptr %6, align 8, !tbaa !8
  %31 = load i32, ptr %7, align 4, !tbaa !4
  %32 = sext i32 %31 to i64
  %33 = getelementptr inbounds %struct.t_bb, ptr %30, i64 %32
  %34 = getelementptr inbounds nuw %struct.t_bb, ptr %33, i32 0, i32 15
  %35 = load i32, ptr %34, align 4, !tbaa !68
  %36 = load ptr, ptr %6, align 8, !tbaa !8
  %37 = load i32, ptr %7, align 4, !tbaa !4
  %38 = sext i32 %37 to i64
  %39 = getelementptr inbounds %struct.t_bb, ptr %36, i64 %38
  %40 = getelementptr inbounds nuw %struct.t_bb, ptr %39, i32 0, i32 16
  %41 = load i32, ptr %40, align 4, !tbaa !67
  %42 = load ptr, ptr %6, align 8, !tbaa !8
  %43 = load i32, ptr %7, align 4, !tbaa !4
  %44 = sext i32 %43 to i64
  %45 = getelementptr inbounds %struct.t_bb, ptr %42, i64 %44
  %46 = getelementptr inbounds nuw %struct.t_bb, ptr %45, i32 0, i32 17
  %47 = load i32, ptr %46, align 4, !tbaa !66
  %48 = load ptr, ptr %6, align 8, !tbaa !8
  %49 = load i32, ptr %7, align 4, !tbaa !4
  %50 = sext i32 %49 to i64
  %51 = getelementptr inbounds %struct.t_bb, ptr %48, i64 %50
  %52 = getelementptr inbounds nuw %struct.t_bb, ptr %51, i32 0, i32 0
  %53 = load float, ptr %52, align 4, !tbaa !13
  %54 = fpext float %53 to double
  %55 = load ptr, ptr %6, align 8, !tbaa !8
  %56 = load i32, ptr %7, align 4, !tbaa !4
  %57 = sext i32 %56 to i64
  %58 = getelementptr inbounds %struct.t_bb, ptr %55, i64 %57
  %59 = getelementptr inbounds nuw %struct.t_bb, ptr %58, i32 0, i32 1
  %60 = load float, ptr %59, align 4, !tbaa !16
  %61 = fpext float %60 to double
  %62 = load ptr, ptr %6, align 8, !tbaa !8
  %63 = load i32, ptr %7, align 4, !tbaa !4
  %64 = sext i32 %63 to i64
  %65 = getelementptr inbounds %struct.t_bb, ptr %62, i64 %64
  %66 = getelementptr inbounds nuw %struct.t_bb, ptr %65, i32 0, i32 4
  %67 = load float, ptr %66, align 4, !tbaa !49
  %68 = fpext float %67 to double
  %69 = load ptr, ptr %6, align 8, !tbaa !8
  %70 = load i32, ptr %7, align 4, !tbaa !4
  %71 = sext i32 %70 to i64
  %72 = getelementptr inbounds %struct.t_bb, ptr %69, i64 %71
  %73 = getelementptr inbounds nuw %struct.t_bb, ptr %72, i32 0, i32 5
  %74 = load float, ptr %73, align 4, !tbaa !50
  %75 = fpext float %74 to double
  %76 = load ptr, ptr %6, align 8, !tbaa !8
  %77 = load i32, ptr %7, align 4, !tbaa !4
  %78 = sext i32 %77 to i64
  %79 = getelementptr inbounds %struct.t_bb, ptr %76, i64 %78
  %80 = getelementptr inbounds nuw %struct.t_bb, ptr %79, i32 0, i32 6
  %81 = load float, ptr %80, align 4, !tbaa !51
  %82 = fpext float %81 to double
  %83 = load ptr, ptr %6, align 8, !tbaa !8
  %84 = load i32, ptr %7, align 4, !tbaa !4
  %85 = sext i32 %84 to i64
  %86 = getelementptr inbounds %struct.t_bb, ptr %83, i64 %85
  %87 = getelementptr inbounds nuw %struct.t_bb, ptr %86, i32 0, i32 8
  %88 = load i8, ptr %87, align 4, !tbaa !46, !range !47, !noundef !48
  %89 = trunc i8 %88 to i1
  %90 = select i1 %89, ptr @.str.33, ptr @.str.34
  %91 = call i32 (ptr, ptr, ...) @fprintf(ptr noundef %17, ptr noundef @.str.32, i32 noundef %23, i32 noundef %29, i32 noundef %35, i32 noundef %41, i32 noundef %47, double noundef %54, double noundef %61, double noundef %68, double noundef %75, double noundef %82, ptr noundef %90) #14
  br label %92

92:                                               ; preds = %16
  %93 = load i32, ptr %7, align 4, !tbaa !4
  %94 = add nsw i32 %93, 1
  store i32 %94, ptr %7, align 4, !tbaa !4
  br label %12, !llvm.loop !155

95:                                               ; preds = %12
  %96 = load ptr, ptr %4, align 8, !tbaa !30
  %97 = call i32 (ptr, ptr, ...) @fprintf(ptr noundef %96, ptr noundef @.str.1) #14
  call void @llvm.lifetime.end.p0(i64 4, ptr %7) #14
  ret void
}