; Function Attrs: mustprogress nofree nounwind uwtable
define void @_Z5pr_bbP8_IO_FILEiP4t_bb(ptr noundef captures(none) %0, i32 noundef %1, ptr noundef readonly captures(none) %2) local_unnamed_addr #5 {
  %fputc = tail call i32 @fputc(i32 10, ptr %0)
  %4 = tail call i32 (ptr, ptr, ...) @fprintf(ptr noundef %0, ptr noundef nonnull @.str.23, ptr noundef nonnull @.str.24, ptr noundef nonnull @.str.4, ptr noundef nonnull @.str.25, ptr noundef nonnull @.str.7, ptr noundef nonnull @.str.8, ptr noundef nonnull @.str.26, ptr noundef nonnull @.str.27, ptr noundef nonnull @.str.28, ptr noundef nonnull @.str.29, ptr noundef nonnull @.str.30, ptr noundef nonnull @.str.31) #21
  %5 = icmp sgt i32 %1, 0
  br i1 %5, label %.lr.ph.preheader, label %._crit_edge

.lr.ph.preheader:                                 ; preds = %3
  %wide.trip.count = zext nneg i32 %1 to i64
  br label %.lr.ph

.lr.ph:                                           ; preds = %.lr.ph.preheader, %.lr.ph
  %indvars.iv = phi i64 [ 0, %.lr.ph.preheader ], [ %indvars.iv.next, %.lr.ph ]
  %6 = getelementptr inbounds nuw %struct.t_bb, ptr %2, i64 %indvars.iv
  %7 = getelementptr inbounds nuw i8, ptr %6, i64 44
  %8 = load i32, ptr %7, align 4, !tbaa !49
  %9 = getelementptr inbounds nuw i8, ptr %6, i64 52
  %10 = load i32, ptr %9, align 4, !tbaa !58
  %11 = getelementptr inbounds nuw i8, ptr %6, i64 60
  %12 = load i32, ptr %11, align 4, !tbaa !59
  %13 = getelementptr inbounds nuw i8, ptr %6, i64 64
  %14 = load i32, ptr %13, align 4, !tbaa !60
  %15 = getelementptr inbounds nuw i8, ptr %6, i64 68
  %16 = load i32, ptr %15, align 4, !tbaa !61
  %17 = load float, ptr %6, align 4, !tbaa !4
  %18 = fpext float %17 to double
  %19 = getelementptr inbounds nuw i8, ptr %6, i64 4
  %20 = load float, ptr %19, align 4, !tbaa !11
  %21 = fpext float %20 to double
  %22 = getelementptr inbounds nuw i8, ptr %6, i64 16
  %23 = load float, ptr %22, align 4, !tbaa !35
  %24 = fpext float %23 to double
  %25 = getelementptr inbounds nuw i8, ptr %6, i64 20
  %26 = load float, ptr %25, align 4, !tbaa !36
  %27 = fpext float %26 to double
  %28 = getelementptr inbounds nuw i8, ptr %6, i64 24
  %29 = load float, ptr %28, align 4, !tbaa !37
  %30 = fpext float %29 to double
  %31 = getelementptr inbounds nuw i8, ptr %6, i64 32
  %32 = load i8, ptr %31, align 4, !tbaa !32, !range !33, !noundef !34
  %33 = trunc nuw i8 %32 to i1
  %34 = select i1 %33, ptr @.str.33, ptr @.str.34
  %35 = tail call i32 (ptr, ptr, ...) @fprintf(ptr noundef %0, ptr noundef nonnull @.str.32, i32 noundef %8, i32 noundef %10, i32 noundef %12, i32 noundef %14, i32 noundef %16, double noundef %18, double noundef %21, double noundef %24, double noundef %27, double noundef %30, ptr noundef nonnull %34) #21
  %indvars.iv.next = add nuw nsw i64 %indvars.iv, 1
  %exitcond.not = icmp eq i64 %indvars.iv.next, %wide.trip.count
  br i1 %exitcond.not, label %._crit_edge, label %.lr.ph, !llvm.loop !93

._crit_edge:                                      ; preds = %.lr.ph, %3
  %fputc28 = tail call i32 @fputc(i32 10, ptr %0)
  ret void
}